target datalayout = "e-m:e-p270:32:32-p271:32:32-p272:64:64-i64:64-i128:128-f80:128-n8:16:32:64-S128"
target triple = "x86_64-pc-linux-gnu"

%struct.in6_addr = type { %union.anon.5 }
%union.anon.5 = type { [4 x i32] }
%struct.uv_udp_s = type { ptr, ptr, i32, ptr, [2 x ptr], %union.anon, ptr, i32, i64, i64, ptr, ptr, %struct.uv__io_s, [2 x ptr], [2 x ptr] }
%union.anon = type { [4 x ptr] }
%struct.uv__io_s = type { ptr, [2 x ptr], [2 x ptr], i32, i32, i32 }
%union.uv__sockaddr = type { %struct.sockaddr_in6 }
%struct.sockaddr_in6 = type { i16, i16, i32, %struct.in6_addr, i32 }
%struct.sockaddr_in = type { i16, i16, %struct.in_addr, [8 x i8] }
%struct.in_addr = type { i32 }
%struct.ip_mreq = type { %struct.in_addr, %struct.in_addr }
%struct.ipv6_mreq = type { %struct.in6_addr, i32 }

@in6addr_any = external constant %struct.in6_addr, align 4

; Function Attrs: nounwind uwtable
define internal i32 @uv__udp_set_membership6(ptr noundef %0, ptr noundef %1, ptr noundef %2, i32 noundef %3) #0 {
  %5 = alloca i32, align 4
  %6 = alloca ptr, align 8
  %7 = alloca ptr, align 8
  %8 = alloca ptr, align 8
  %9 = alloca i32, align 4
  %10 = alloca i32, align 4
  %11 = alloca %struct.ipv6_mreq, align 4
  %12 = alloca %struct.sockaddr_in6, align 4
  store ptr %0, ptr %6, align 8
  store ptr %1, ptr %7, align 8
  store ptr %2, ptr %8, align 8
  store i32 %3, ptr %9, align 4
  call void @llvm.memset.p0.i64(ptr align 4 %11, i8 0, i64 20, i1 false)
  %13 = load ptr, ptr %8, align 8
  %14 = icmp ne ptr %13, null
  br i1 %14, label %15, label %24

15:                                               ; preds = %4
  %16 = load ptr, ptr %8, align 8
  %17 = call i32 @uv_ip6_addr(ptr noundef %16, i32 noundef 0, ptr noundef %12)
  %18 = icmp ne i32 %17, 0
  br i1 %18, label %19, label %20

19:                                               ; preds = %15
  store i32 -22, ptr %5, align 4
  br label %47

20:                                               ; preds = %15
  %21 = getelementptr inbounds %struct.sockaddr_in6, ptr %12, i32 0, i32 4
  %22 = load i32, ptr %21, align 4
  %23 = getelementptr inbounds %struct.ipv6_mreq, ptr %11, i32 0, i32 1
  store i32 %22, ptr %23, align 4
  br label %26

24:                                               ; preds = %4
  %25 = getelementptr inbounds %struct.ipv6_mreq, ptr %11, i32 0, i32 1
  store i32 0, ptr %25, align 4
  br label %26

26:                                               ; preds = %24, %20
  %27 = getelementptr inbounds %struct.ipv6_mreq, ptr %11, i32 0, i32 0
  %28 = load ptr, ptr %7, align 8
  %29 = getelementptr inbounds %struct.sockaddr_in6, ptr %28, i32 0, i32 3
  call void @llvm.memcpy.p0.p0.i64(ptr align 4 %27, ptr align 4 %29, i64 16, i1 false)
  %30 = load i32, ptr %9, align 4
  switch i32 %30, label %33 [
    i32 1, label %31
    i32 0, label %32
  ]

31:                                               ; preds = %26
  store i32 20, ptr %10, align 4
  br label %34

32:                                               ; preds = %26
  store i32 21, ptr %10, align 4
  br label %34

33:                                               ; preds = %26
  store i32 -22, ptr %5, align 4
  br label %47

34:                                               ; preds = %32, %31
  %35 = load ptr, ptr %6, align 8
  %36 = getelementptr inbounds %struct.uv_udp_s, ptr %35, i32 0, i32 12
  %37 = getelementptr inbounds %struct.uv__io_s, ptr %36, i32 0, i32 5
  %38 = load i32, ptr %37, align 8
  %39 = load i32, ptr %10, align 4
  %40 = call i32 @setsockopt(i32 noundef %38, i32 noundef 41, i32 noundef %39, ptr noundef %11, i32 noundef 20) #7
  %41 = icmp ne i32 %40, 0
  br i1 %41, label %42, label %46

42:                                               ; preds = %34
  %43 = call ptr @__errno_location() #8
  %44 = load i32, ptr %43, align 4
  %45 = sub nsw i32 0, %44
  store i32 %45, ptr %5, align 4
  br label %47

46:                                               ; preds = %34
  store i32 0, ptr %5, align 4
  br label %47

47:                                               ; preds = %46, %42, %33, %19
  %48 = load i32, ptr %5, align 4
  ret i32 %48
}

; Function Attrs: nounwind uwtable
define internal i32 @uv__udp_set_membership4(ptr noundef %0, ptr noundef %1, ptr noundef %2, i32 noundef %3) #0 {
  %5 = alloca i32, align 4
  %6 = alloca ptr, align 8
  %7 = alloca ptr, align 8
  %8 = alloca ptr, align 8
  %9 = alloca i32, align 4
  %10 = alloca %struct.ip_mreq, align 4
  %11 = alloca i32, align 4
  %12 = alloca i32, align 4
  store ptr %0, ptr %6, align 8
  store ptr %1, ptr %7, align 8
  store ptr %2, ptr %8, align 8
  store i32 %3, ptr %9, align 4
  call void @llvm.memset.p0.i64(ptr align 4 %10, i8 0, i64 8, i1 false)
  %13 = load ptr, ptr %8, align 8
  %14 = icmp ne ptr %13, null
  br i1 %14, label %15, label %25

15:                                               ; preds = %4
  %16 = load ptr, ptr %8, align 8
  %17 = getelementptr inbounds %struct.ip_mreq, ptr %10, i32 0, i32 1
  %18 = getelementptr inbounds %struct.in_addr, ptr %17, i32 0, i32 0
  %19 = call i32 @uv_inet_pton(i32 noundef 2, ptr noundef %16, ptr noundef %18)
  store i32 %19, ptr %12, align 4
  %20 = load i32, ptr %12, align 4
  %21 = icmp ne i32 %20, 0
  br i1 %21, label %22, label %24

22:                                               ; preds = %15
  %23 = load i32, ptr %12, align 4
  store i32 %23, ptr %5, align 4
  br label %53

24:                                               ; preds = %15
  br label %29

25:                                               ; preds = %4
  %26 = call i32 @htonl(i32 noundef 0) #8
  %27 = getelementptr inbounds %struct.ip_mreq, ptr %10, i32 0, i32 1
  %28 = getelementptr inbounds %struct.in_addr, ptr %27, i32 0, i32 0
  store i32 %26, ptr %28, align 4
  br label %29

29:                                               ; preds = %25, %24
  %30 = load ptr, ptr %7, align 8
  %31 = getelementptr inbounds %struct.sockaddr_in, ptr %30, i32 0, i32 2
  %32 = getelementptr inbounds %struct.in_addr, ptr %31, i32 0, i32 0
  %33 = load i32, ptr %32, align 4
  %34 = getelementptr inbounds %struct.ip_mreq, ptr %10, i32 0, i32 0
  %35 = getelementptr inbounds %struct.in_addr, ptr %34, i32 0, i32 0
  store i32 %33, ptr %35, align 4
  %36 = load i32, ptr %9, align 4
  switch i32 %36, label %39 [
    i32 1, label %37
    i32 0, label %38
  ]

37:                                               ; preds = %29
  store i32 35, ptr %11, align 4
  br label %40

38:                                               ; preds = %29
  store i32 36, ptr %11, align 4
  br label %40

39:                                               ; preds = %29
  store i32 -22, ptr %5, align 4
  br label %53

40:                                               ; preds = %38, %37
  %41 = load ptr, ptr %6, align 8
  %42 = getelementptr inbounds %struct.uv_udp_s, ptr %41, i32 0, i32 12
  %43 = getelementptr inbounds %struct.uv__io_s, ptr %42, i32 0, i32 5
  %44 = load i32, ptr %43, align 8
  %45 = load i32, ptr %11, align 4
  %46 = call i32 @setsockopt(i32 noundef %44, i32 noundef 0, i32 noundef %45, ptr noundef %10, i32 noundef 8) #7
  %47 = icmp ne i32 %46, 0
  br i1 %47, label %48, label %52

48:                                               ; preds = %40
  %49 = call ptr @__errno_location() #8
  %50 = load i32, ptr %49, align 4
  %51 = sub nsw i32 0, %50
  store i32 %51, ptr %5, align 4
  br label %53

52:                                               ; preds = %40
  store i32 0, ptr %5, align 4
  br label %53

53:                                               ; preds = %52, %48, %39, %22
  %54 = load i32, ptr %5, align 4
  ret i32 %54
}

; Function Attrs: nounwind uwtable
define internal i32 @uv__udp_maybe_deferred_bind(ptr noundef %0, i32 noundef %1, i32 noundef %2) #0 {
  %4 = alloca i32, align 4
  %5 = alloca ptr, align 8
  %6 = alloca i32, align 4
  %7 = alloca i32, align 4
  %8 = alloca %union.uv__sockaddr, align 4
  %9 = alloca i32, align 4
  %10 = alloca ptr, align 8
  %11 = alloca ptr, align 8
  store ptr %0, ptr %5, align 8
  store i32 %1, ptr %6, align 4
  store i32 %2, ptr %7, align 4
  %12 = load ptr, ptr %5, align 8
  %13 = getelementptr inbounds %struct.uv_udp_s, ptr %12, i32 0, i32 12
  %14 = getelementptr inbounds %struct.uv__io_s, ptr %13, i32 0, i32 5
  %15 = load i32, ptr %14, align 8
  %16 = icmp ne i32 %15, -1
  br i1 %16, label %17, label %18

17:                                               ; preds = %3
  store i32 0, ptr %4, align 4
  br label %39

18:                                               ; preds = %3
  %19 = load i32, ptr %6, align 4
  switch i32 %19, label %33 [
    i32 2, label %20
    i32 10, label %27
  ]

20:                                               ; preds = %18
  store ptr %8, ptr %10, align 8
  %21 = load ptr, ptr %10, align 8
  call void @llvm.memset.p0.i64(ptr align 4 %21, i8 0, i64 16, i1 false)
  %22 = load ptr, ptr %10, align 8
  %23 = getelementptr inbounds %struct.sockaddr_in, ptr %22, i32 0, i32 0
  store i16 2, ptr %23, align 4
  %24 = load ptr, ptr %10, align 8
  %25 = getelementptr inbounds %struct.sockaddr_in, ptr %24, i32 0, i32 2
  %26 = getelementptr inbounds %struct.in_addr, ptr %25, i32 0, i32 0
  store i32 0, ptr %26, align 4
  store i32 16, ptr %9, align 4
  br label %34

27:                                               ; preds = %18
  store ptr %8, ptr %11, align 8
  %28 = load ptr, ptr %11, align 8
  call void @llvm.memset.p0.i64(ptr align 4 %28, i8 0, i64 28, i1 false)
  %29 = load ptr, ptr %11, align 8
  %30 = getelementptr inbounds %struct.sockaddr_in6, ptr %29, i32 0, i32 0
  store i16 10, ptr %30, align 4
  %31 = load ptr, ptr %11, align 8
  %32 = getelementptr inbounds %struct.sockaddr_in6, ptr %31, i32 0, i32 3
  call void @llvm.memcpy.p0.p0.i64(ptr align 4 %32, ptr align 4 @in6addr_any, i64 16, i1 false)
  store i32 28, ptr %9, align 4
  br label %34

33:                                               ; preds = %18
  call void @abort() #9
  unreachable

34:                                               ; preds = %27, %20
  %35 = load ptr, ptr %5, align 8
  %36 = load i32, ptr %9, align 4
  %37 = load i32, ptr %7, align 4
  %38 = call i32 @uv__udp_bind(ptr noundef %35, ptr noundef %8, i32 noundef %36, i32 noundef %37)
  store i32 %38, ptr %4, align 4
  br label %39

39:                                               ; preds = %34, %17
  %40 = load i32, ptr %4, align 4
  ret i32 %40
}

; Function Attrs: nounwind uwtable
define dso_local i32 @uv_udp_set_membership(ptr noundef %0, ptr noundef %1, ptr noundef %2, i32 noundef %3) #0 {
  %5 = alloca i32, align 4
  %6 = alloca ptr, align 8
  %7 = alloca ptr, align 8
  %8 = alloca ptr, align 8
  %9 = alloca i32, align 4
  %10 = alloca i32, align 4
  %11 = alloca %struct.sockaddr_in, align 4
  %12 = alloca %struct.sockaddr_in6, align 4
  store ptr %0, ptr %6, align 8
  store ptr %1, ptr %7, align 8
  store ptr %2, ptr %8, align 8
  store i32 %3, ptr %9, align 4
  %13 = load ptr, ptr %7, align 8
  %14 = call i32 @uv_ip4_addr(ptr noundef %13, i32 noundef 0, ptr noundef %11)
  %15 = icmp eq i32 %14, 0
  br i1 %15, label %16, label %28

16:                                               ; preds = %4
  %17 = load ptr, ptr %6, align 8
  %18 = call i32 @uv__udp_maybe_deferred_bind(ptr noundef %17, i32 noundef 2, i32 noundef 4)
  store i32 %18, ptr %10, align 4
  %19 = load i32, ptr %10, align 4
  %20 = icmp ne i32 %19, 0
  br i1 %20, label %21, label %23

21:                                               ; preds = %16
  %22 = load i32, ptr %10, align 4
  store i32 %22, ptr %5, align 4
  br label %45

23:                                               ; preds = %16
  %24 = load ptr, ptr %6, align 8
  %25 = load ptr, ptr %8, align 8
  %26 = load i32, ptr %9, align 4
  %27 = call i32 @uv__udp_set_membership4(ptr noundef %24, ptr noundef %11, ptr noundef %25, i32 noundef %26)
  store i32 %27, ptr %5, align 4
  br label %45

28:                                               ; preds = %4
  %29 = load ptr, ptr %7, align 8
  %30 = call i32 @uv_ip6_addr(ptr noundef %29, i32 noundef 0, ptr noundef %12)
  %31 = icmp eq i32 %30, 0
  br i1 %31, label %32, label %44

32:                                               ; preds = %28
  %33 = load ptr, ptr %6, align 8
  %34 = call i32 @uv__udp_maybe_deferred_bind(ptr noundef %33, i32 noundef 10, i32 noundef 4)
  store i32 %34, ptr %10, align 4
  %35 = load i32, ptr %10, align 4
  %36 = icmp ne i32 %35, 0
  br i1 %36, label %37, label %39

37:                                               ; preds = %32
  %38 = load i32, ptr %10, align 4
  store i32 %38, ptr %5, align 4
  br label %45

39:                                               ; preds = %32
  %40 = load ptr, ptr %6, align 8
  %41 = load ptr, ptr %8, align 8
  %42 = load i32, ptr %9, align 4
  %43 = call i32 @uv__udp_set_membership6(ptr noundef %40, ptr noundef %12, ptr noundef %41, i32 noundef %42)
  store i32 %43, ptr %5, align 4
  br label %45

44:                                               ; preds = %28
  store i32 -22, ptr %5, align 4
  br label %45

45:                                               ; preds = %44, %39, %37, %23, %21
  %46 = load i32, ptr %5, align 4
  ret i32 %46
}