; Function Attrs: nounwind uwtable
define dso_local i32 @uv_udp_set_membership(ptr noundef captures(none) %0, ptr noundef %1, ptr noundef %2, i32 noundef %3) local_unnamed_addr #0 {
  %5 = alloca %struct.ipv6_mreq, align 4
  %6 = alloca %struct.sockaddr_in6, align 4
  %7 = alloca %union.uv__sockaddr, align 4
  %8 = alloca %struct.ip_mreq, align 8
  %9 = alloca %union.uv__sockaddr, align 4
  %10 = alloca %struct.sockaddr_in, align 4
  %11 = alloca %struct.sockaddr_in6, align 4
  %12 = call i32 @uv_ip4_addr(ptr noundef %1, i32 noundef 0, ptr noundef nonnull %10) #9
  %13 = icmp eq i32 %12, 0
  br i1 %13, label %14, label %36

14:                                               ; preds = %4
  call void @llvm.lifetime.start.p0(i64 28, ptr nonnull %9)
  %15 = getelementptr inbounds nuw i8, ptr %0, i64 176
  %16 = load i32, ptr %15, align 8
  %.not.i = icmp eq i32 %16, -1
  br i1 %.not.i, label %uv__udp_maybe_deferred_bind.exit, label %uv__udp_maybe_deferred_bind.exit.thread

uv__udp_maybe_deferred_bind.exit.thread:          ; preds = %14
  call void @llvm.lifetime.end.p0(i64 28, ptr nonnull %9)
  br label %18

uv__udp_maybe_deferred_bind.exit:                 ; preds = %14
  call void @llvm.memset.p0.i64(ptr noundef nonnull align 4 dereferenceable(16) %9, i8 0, i64 16, i1 false)
  store i16 2, ptr %9, align 4
  %17 = call i32 @uv__udp_bind(ptr noundef nonnull %0, ptr noundef nonnull %9, i32 noundef 16, i32 noundef 4)
  call void @llvm.lifetime.end.p0(i64 28, ptr nonnull %9)
  %.not16 = icmp eq i32 %17, 0
  br i1 %.not16, label %18, label %61

18:                                               ; preds = %uv__udp_maybe_deferred_bind.exit.thread, %uv__udp_maybe_deferred_bind.exit
  call void @llvm.lifetime.start.p0(i64 8, ptr nonnull %8)
  store i64 0, ptr %8, align 8
  %.not.i17 = icmp eq ptr %2, null
  br i1 %.not.i17, label %22, label %19

19:                                               ; preds = %18
  %20 = getelementptr inbounds nuw i8, ptr %8, i64 4
  %21 = call i32 @uv_inet_pton(i32 noundef 2, ptr noundef nonnull %2, ptr noundef nonnull %20) #9
  %.not11.i = icmp eq i32 %21, 0
  br i1 %.not11.i, label %25, label %uv__udp_set_membership4.exit

22:                                               ; preds = %18
  %23 = call i32 @htonl(i32 noundef 0) #10
  %24 = getelementptr inbounds nuw i8, ptr %8, i64 4
  store i32 %23, ptr %24, align 4
  br label %25

25:                                               ; preds = %22, %19
  %26 = getelementptr inbounds nuw i8, ptr %10, i64 4
  %27 = load i32, ptr %26, align 4
  store i32 %27, ptr %8, align 8
  switch i32 %3, label %uv__udp_set_membership4.exit [
    i32 1, label %29
    i32 0, label %28
  ]

28:                                               ; preds = %25
  br label %29

29:                                               ; preds = %28, %25
  %.08.i = phi i32 [ 36, %28 ], [ 35, %25 ]
  %30 = load i32, ptr %15, align 8
  %31 = call i32 @setsockopt(i32 noundef %30, i32 noundef 0, i32 noundef %.08.i, ptr noundef nonnull %8, i32 noundef 8) #9
  %.not12.i = icmp eq i32 %31, 0
  br i1 %.not12.i, label %uv__udp_set_membership4.exit, label %32

32:                                               ; preds = %29
  %33 = tail call ptr @__errno_location() #10
  %34 = load i32, ptr %33, align 4
  %35 = sub nsw i32 0, %34
  br label %uv__udp_set_membership4.exit

uv__udp_set_membership4.exit:                     ; preds = %19, %25, %29, %32
  %.0.i18 = phi i32 [ %35, %32 ], [ %21, %19 ], [ -22, %25 ], [ 0, %29 ]
  call void @llvm.lifetime.end.p0(i64 8, ptr nonnull %8)
  br label %61

36:                                               ; preds = %4
  %37 = call i32 @uv_ip6_addr(ptr noundef %1, i32 noundef 0, ptr noundef nonnull %11) #9
  %38 = icmp eq i32 %37, 0
  br i1 %38, label %39, label %61

39:                                               ; preds = %36
  call void @llvm.lifetime.start.p0(i64 28, ptr nonnull %7)
  %40 = getelementptr inbounds nuw i8, ptr %0, i64 176
  %41 = load i32, ptr %40, align 8
  %.not.i19 = icmp eq i32 %41, -1
  br i1 %.not.i19, label %uv__udp_maybe_deferred_bind.exit21, label %uv__udp_maybe_deferred_bind.exit21.thread

uv__udp_maybe_deferred_bind.exit21.thread:        ; preds = %39
  call void @llvm.lifetime.end.p0(i64 28, ptr nonnull %7)
  br label %44

uv__udp_maybe_deferred_bind.exit21:               ; preds = %39
  call void @llvm.memset.p0.i64(ptr noundef nonnull align 4 dereferenceable(28) %7, i8 0, i64 28, i1 false)
  store i16 10, ptr %7, align 4
  %42 = getelementptr inbounds nuw i8, ptr %7, i64 8
  call void @llvm.memcpy.p0.p0.i64(ptr noundef nonnull align 4 dereferenceable(16) %42, ptr noundef nonnull align 4 dereferenceable(16) @in6addr_any, i64 16, i1 false)
  %43 = call i32 @uv__udp_bind(ptr noundef nonnull %0, ptr noundef nonnull %7, i32 noundef 28, i32 noundef 4)
  call void @llvm.lifetime.end.p0(i64 28, ptr nonnull %7)
  %.not = icmp eq i32 %43, 0
  br i1 %.not, label %44, label %61

44:                                               ; preds = %uv__udp_maybe_deferred_bind.exit21.thread, %uv__udp_maybe_deferred_bind.exit21
  call void @llvm.lifetime.start.p0(i64 20, ptr nonnull %5)
  call void @llvm.lifetime.start.p0(i64 28, ptr nonnull %6)
  %45 = getelementptr inbounds nuw i8, ptr %5, i64 16
  store i32 0, ptr %45, align 4
  %.not.i22 = icmp eq ptr %2, null
  br i1 %.not.i22, label %51, label %46

46:                                               ; preds = %44
  %47 = call i32 @uv_ip6_addr(ptr noundef nonnull %2, i32 noundef 0, ptr noundef nonnull %6) #9
  %.not8.i = icmp eq i32 %47, 0
  br i1 %.not8.i, label %48, label %uv__udp_set_membership6.exit

48:                                               ; preds = %46
  %49 = getelementptr inbounds nuw i8, ptr %6, i64 24
  %50 = load i32, ptr %49, align 4
  store i32 %50, ptr %45, align 4
  br label %51

51:                                               ; preds = %48, %44
  %52 = getelementptr inbounds nuw i8, ptr %11, i64 8
  call void @llvm.memcpy.p0.p0.i64(ptr noundef nonnull align 4 dereferenceable(16) %5, ptr noundef nonnull readonly align 4 dereferenceable(16) %52, i64 16, i1 false)
  switch i32 %3, label %uv__udp_set_membership6.exit [
    i32 1, label %54
    i32 0, label %53
  ]

53:                                               ; preds = %51
  br label %54

54:                                               ; preds = %53, %51
  %.0.i23 = phi i32 [ 21, %53 ], [ 20, %51 ]
  %55 = load i32, ptr %40, align 8
  %56 = call i32 @setsockopt(i32 noundef %55, i32 noundef 41, i32 noundef %.0.i23, ptr noundef nonnull %5, i32 noundef 20) #9
  %.not9.i = icmp eq i32 %56, 0
  br i1 %.not9.i, label %uv__udp_set_membership6.exit, label %57

57:                                               ; preds = %54
  %58 = tail call ptr @__errno_location() #10
  %59 = load i32, ptr %58, align 4
  %60 = sub nsw i32 0, %59
  br label %uv__udp_set_membership6.exit

uv__udp_set_membership6.exit:                     ; preds = %46, %51, %54, %57
  %.06.i = phi i32 [ %60, %57 ], [ -22, %46 ], [ -22, %51 ], [ 0, %54 ]
  call void @llvm.lifetime.end.p0(i64 20, ptr nonnull %5)
  call void @llvm.lifetime.end.p0(i64 28, ptr nonnull %6)
  br label %61

61:                                               ; preds = %36, %uv__udp_maybe_deferred_bind.exit21, %uv__udp_maybe_deferred_bind.exit, %uv__udp_set_membership6.exit, %uv__udp_set_membership4.exit
  %.0 = phi i32 [ %.0.i18, %uv__udp_set_membership4.exit ], [ %.06.i, %uv__udp_set_membership6.exit ], [ %17, %uv__udp_maybe_deferred_bind.exit ], [ %43, %uv__udp_maybe_deferred_bind.exit21 ], [ -22, %36 ]
  ret i32 %.0
}